; Function Attrs: mustprogress uwtable
define noundef i32 @_ZN3zmq12udp_engine_t21set_udp_reuse_addressEib(i32 noundef %0, i1 noundef zeroext %1) local_unnamed_addr #0 align 2 {
  %3 = alloca i32, align 4
  call void @llvm.lifetime.start.p0(i64 4, ptr nonnull %3) #23
  %4 = zext i1 %1 to i32
  store i32 %4, ptr %3, align 4, !tbaa !76
  %5 = call i32 @setsockopt(i32 noundef %0, i32 noundef 1, i32 noundef 2, ptr noundef nonnull %3, i32 noundef 4) #23
  call void @_ZN3zmq29assert_success_or_recoverableEii(i32 noundef %0, i32 noundef %5)
  call void @llvm.lifetime.end.p0(i64 4, ptr nonnull %3) #23
  ret i32 %5
}